target datalayout = "e-m:e-p270:32:32-p271:32:32-p272:64:64-i64:64-i128:128-f80:128-n8:16:32:64-S128"
target triple = "x86_64-pc-linux-gnu"

%struct.URLContext = type { ptr, ptr, ptr, ptr, i32, i32, i32, i32, %struct.AVIOInterruptCB, i64, ptr, ptr, i32 }
%struct.AVIOInterruptCB = type { ptr, ptr }
%struct.concat_data = type { ptr, i64, i64, i64 }
%struct.concat_nodes = type { ptr, i64 }

; Function Attrs: cold nounwind optsize uwtable
define internal i32 @concat_close(ptr noundef %0) #0 {
  %2 = alloca ptr, align 8
  %3 = alloca i32, align 4
  %4 = alloca i64, align 8
  %5 = alloca ptr, align 8
  %6 = alloca ptr, align 8
  store ptr %0, ptr %2, align 8, !tbaa !4
  call void @llvm.lifetime.start.p0(i64 4, ptr %3) #6
  store i32 0, ptr %3, align 4, !tbaa !11
  call void @llvm.lifetime.start.p0(i64 8, ptr %4) #6
  call void @llvm.lifetime.start.p0(i64 8, ptr %5) #6
  %7 = load ptr, ptr %2, align 8, !tbaa !4
  %8 = getelementptr inbounds nuw %struct.URLContext, ptr %7, i32 0, i32 2
  %9 = load ptr, ptr %8, align 8, !tbaa !15
  store ptr %9, ptr %5, align 8, !tbaa !20
  call void @llvm.lifetime.start.p0(i64 8, ptr %6) #6
  %10 = load ptr, ptr %5, align 8, !tbaa !20
  %11 = getelementptr inbounds nuw %struct.concat_data, ptr %10, i32 0, i32 0
  %12 = load ptr, ptr %11, align 8, !tbaa !27
  store ptr %12, ptr %6, align 8, !tbaa !25
  store i64 0, ptr %4, align 8, !tbaa !13
  br label %13

13:                                               ; preds = %27, %1
  %14 = load i64, ptr %4, align 8, !tbaa !13
  %15 = load ptr, ptr %5, align 8, !tbaa !20
  %16 = getelementptr inbounds nuw %struct.concat_data, ptr %15, i32 0, i32 1
  %17 = load i64, ptr %16, align 8, !tbaa !35
  %18 = icmp ne i64 %14, %17
  br i1 %18, label %19, label %30

19:                                               ; preds = %13
  %20 = load ptr, ptr %6, align 8, !tbaa !25
  %21 = load i64, ptr %4, align 8, !tbaa !13
  %22 = getelementptr inbounds nuw %struct.concat_nodes, ptr %20, i64 %21
  %23 = getelementptr inbounds nuw %struct.concat_nodes, ptr %22, i32 0, i32 0
  %24 = call i32 @ffurl_closep(ptr noundef %23)
  %25 = load i32, ptr %3, align 4, !tbaa !11
  %26 = or i32 %25, %24
  store i32 %26, ptr %3, align 4, !tbaa !11
  br label %27

27:                                               ; preds = %19
  %28 = load i64, ptr %4, align 8, !tbaa !13
  %29 = add i64 %28, 1
  store i64 %29, ptr %4, align 8, !tbaa !13
  br label %13, !llvm.loop !43

30:                                               ; preds = %13
  %31 = load ptr, ptr %5, align 8, !tbaa !20
  %32 = getelementptr inbounds nuw %struct.concat_data, ptr %31, i32 0, i32 0
  call void @av_freep(ptr noundef %32)
  %33 = load i32, ptr %3, align 4, !tbaa !11
  %34 = icmp slt i32 %33, 0
  %35 = select i1 %34, i32 -1, i32 0
  call void @llvm.lifetime.end.p0(i64 8, ptr %6) #6
  call void @llvm.lifetime.end.p0(i64 8, ptr %5) #6
  call void @llvm.lifetime.end.p0(i64 8, ptr %4) #6
  call void @llvm.lifetime.end.p0(i64 4, ptr %3) #6
  ret i32 %35
}