; Function Attrs: cold nounwind optsize uwtable
define internal range(i32 -1, 1) i32 @concat_close(ptr noundef readonly captures(none) %0) #0 {
  %2 = getelementptr inbounds nuw i8, ptr %0, i64 16
  %3 = load ptr, ptr %2, align 8, !tbaa !9
  %4 = load ptr, ptr %3, align 8, !tbaa !19
  %5 = getelementptr inbounds nuw i8, ptr %3, i64 8
  %6 = load i64, ptr %5, align 8, !tbaa !30
  %.not10 = icmp eq i64 %6, 0
  br i1 %.not10, label %._crit_edge, label %.lr.ph

.lr.ph:                                           ; preds = %1, %.lr.ph
  %.012 = phi i32 [ %9, %.lr.ph ], [ 0, %1 ]
  %.0911 = phi i64 [ %10, %.lr.ph ], [ 0, %1 ]
  %7 = getelementptr inbounds nuw %struct.concat_nodes, ptr %4, i64 %.0911
  %8 = tail call i32 @ffurl_closep(ptr noundef %7) #5
  %9 = or i32 %8, %.012
  %10 = add i64 %.0911, 1
  %11 = load i64, ptr %5, align 8, !tbaa !30
  %.not = icmp eq i64 %10, %11
  br i1 %.not, label %._crit_edge.loopexit, label %.lr.ph, !llvm.loop !38

._crit_edge.loopexit:                             ; preds = %.lr.ph
  %12 = ashr i32 %9, 31
  br label %._crit_edge

._crit_edge:                                      ; preds = %._crit_edge.loopexit, %1
  %.0.lcssa = phi i32 [ 0, %1 ], [ %12, %._crit_edge.loopexit ]
  tail call void @av_freep(ptr noundef nonnull %3) #5
  ret i32 %.0.lcssa
}